target datalayout = "e-m:e-p270:32:32-p271:32:32-p272:64:64-i64:64-i128:128-f80:128-n8:16:32:64-S128"
target triple = "x86_64-pc-linux-gnu"

%"class.sls::bvect" = type <{ %class.svector, i32, i32, i32, [4 x i8] }>
%class.svector = type { %class.vector }
%class.vector = type { ptr }
%"class.sls::bv_valuation" = type { %"class.sls::bvect", %"class.sls::bvect", %"class.sls::bvect", %"class.sls::bvect", %"class.sls::bvect", %"class.sls::bvect", i32, i32, i32, i32, %"class.sls::bvect" }
%class.random_gen = type { i32 }

; Function Attrs: mustprogress nounwind uwtable
define linkonce_odr hidden noundef nonnull align 4 dereferenceable(4) ptr @_ZN6vectorIjLb0EjEixEj(ptr noundef nonnull align 8 dereferenceable(8) %0, i32 noundef %1) #5 comdat align 2 {
  %3 = alloca ptr, align 8
  %4 = alloca i32, align 4
  store ptr %0, ptr %3, align 8, !tbaa !17
  store i32 %1, ptr %4, align 4, !tbaa !8
  %5 = load ptr, ptr %3, align 8
  %6 = getelementptr inbounds nuw %class.vector, ptr %5, i32 0, i32 0
  %7 = load ptr, ptr %6, align 8, !tbaa !19
  %8 = load i32, ptr %4, align 4, !tbaa !8
  %9 = zext i32 %8 to i64
  %10 = getelementptr inbounds nuw i32, ptr %7, i64 %9
  ret ptr %10
}

; Function Attrs: mustprogress uwtable
define linkonce_odr hidden noundef nonnull align 4 dereferenceable(4) ptr @_ZN3sls5bvect12get_bit_wordEj(ptr noundef nonnull align 8 dereferenceable(20) %0, i32 noundef %1) #4 comdat align 2 {
  %3 = alloca ptr, align 8
  %4 = alloca i32, align 4
  store ptr %0, ptr %3, align 8, !tbaa !3
  store i32 %1, ptr %4, align 4, !tbaa !8
  %5 = load ptr, ptr %3, align 8
  %6 = load i32, ptr %4, align 4, !tbaa !8
  %7 = zext i32 %6 to i64
  %8 = udiv i64 %7, 32
  %9 = trunc i64 %8 to i32
  %10 = call noundef nonnull align 4 dereferenceable(4) ptr @_ZN6vectorIjLb0EjEixEj(ptr noundef nonnull align 8 dereferenceable(8) %5, i32 noundef %9)
  ret ptr %10
}

; Function Attrs: mustprogress nounwind uwtable
define linkonce_odr hidden noundef i32 @_ZN3sls5bvect12get_pos_maskEj(i32 noundef %0) #5 comdat align 2 {
  %2 = alloca i32, align 4
  store i32 %0, ptr %2, align 4, !tbaa !8
  %3 = load i32, ptr %2, align 4, !tbaa !8
  %4 = zext i32 %3 to i64
  %5 = urem i64 %4, 32
  %6 = trunc i64 %5 to i32
  %7 = shl i32 1, %6
  ret i32 %7
}

; Function Attrs: mustprogress uwtable
define linkonce_odr hidden noundef i32 @_ZNK3sls5bvect12get_bit_wordEj(ptr noundef nonnull align 8 dereferenceable(20) %0, i32 noundef %1) #4 comdat align 2 {
  %3 = alloca ptr, align 8
  %4 = alloca i32, align 4
  store ptr %0, ptr %3, align 8, !tbaa !3
  store i32 %1, ptr %4, align 4, !tbaa !8
  %5 = load ptr, ptr %3, align 8
  %6 = load i32, ptr %4, align 4, !tbaa !8
  %7 = zext i32 %6 to i64
  %8 = udiv i64 %7, 32
  %9 = trunc i64 %8 to i32
  %10 = call noundef nonnull align 4 dereferenceable(4) ptr @_ZNK6vectorIjLb0EjEixEj(ptr noundef nonnull align 8 dereferenceable(8) %5, i32 noundef %9)
  %11 = load i32, ptr %10, align 4, !tbaa !8
  ret i32 %11
}

; Function Attrs: mustprogress nounwind uwtable
define linkonce_odr hidden noundef nonnull align 4 dereferenceable(4) ptr @_ZNK6vectorIjLb0EjEixEj(ptr noundef nonnull align 8 dereferenceable(8) %0, i32 noundef %1) #5 comdat align 2 {
  %3 = alloca ptr, align 8
  %4 = alloca i32, align 4
  store ptr %0, ptr %3, align 8, !tbaa !17
  store i32 %1, ptr %4, align 4, !tbaa !8
  %5 = load ptr, ptr %3, align 8
  %6 = getelementptr inbounds nuw %class.vector, ptr %5, i32 0, i32 0
  %7 = load ptr, ptr %6, align 8, !tbaa !19
  %8 = load i32, ptr %4, align 4, !tbaa !8
  %9 = zext i32 %8 to i64
  %10 = getelementptr inbounds nuw i32, ptr %7, i64 %9
  ret ptr %10
}

; Function Attrs: mustprogress uwtable
define linkonce_odr hidden void @_ZN3sls5bvect3setEjb(ptr noundef nonnull align 8 dereferenceable(20) %0, i32 noundef %1, i1 noundef zeroext %2) #4 comdat align 2 {
  %4 = alloca ptr, align 8
  %5 = alloca i32, align 4
  %6 = alloca i8, align 1
  %7 = alloca i32, align 4
  store ptr %0, ptr %4, align 8, !tbaa !3
  store i32 %1, ptr %5, align 4, !tbaa !8
  %8 = zext i1 %2 to i8
  store i8 %8, ptr %6, align 1, !tbaa !25
  %9 = load ptr, ptr %4, align 8
  call void @llvm.lifetime.start.p0(i64 4, ptr %7) #3
  %10 = load i8, ptr %6, align 1, !tbaa !25, !range !27, !noundef !28
  %11 = trunc i8 %10 to i1
  %12 = zext i1 %11 to i32
  %13 = sub i32 0, %12
  store i32 %13, ptr %7, align 4, !tbaa !8
  %14 = load i32, ptr %7, align 4, !tbaa !8
  %15 = load i32, ptr %5, align 4, !tbaa !8
  %16 = call noundef nonnull align 4 dereferenceable(4) ptr @_ZN3sls5bvect12get_bit_wordEj(ptr noundef nonnull align 8 dereferenceable(20) %9, i32 noundef %15)
  %17 = load i32, ptr %16, align 4, !tbaa !8
  %18 = xor i32 %14, %17
  %19 = load i32, ptr %5, align 4, !tbaa !8
  %20 = call noundef i32 @_ZN3sls5bvect12get_pos_maskEj(i32 noundef %19)
  %21 = and i32 %18, %20
  %22 = load i32, ptr %5, align 4, !tbaa !8
  %23 = call noundef nonnull align 4 dereferenceable(4) ptr @_ZN3sls5bvect12get_bit_wordEj(ptr noundef nonnull align 8 dereferenceable(20) %9, i32 noundef %22)
  %24 = load i32, ptr %23, align 4, !tbaa !8
  %25 = xor i32 %24, %21
  store i32 %25, ptr %23, align 4, !tbaa !8
  call void @llvm.lifetime.end.p0(i64 4, ptr %7) #3
  ret void
}

; Function Attrs: mustprogress nounwind uwtable
define linkonce_odr hidden noundef i32 @_ZN10random_genclEv(ptr noundef nonnull align 4 dereferenceable(4) %0) #5 comdat align 2 {
  %2 = alloca ptr, align 8
  store ptr %0, ptr %2, align 8, !tbaa !72
  %3 = load ptr, ptr %2, align 8
  %4 = getelementptr inbounds nuw %class.random_gen, ptr %3, i32 0, i32 0
  %5 = load i32, ptr %4, align 4, !tbaa !95
  %6 = zext i32 %5 to i64
  %7 = mul nsw i64 %6, 214013
  %8 = add nsw i64 %7, 2531011
  %9 = trunc i64 %8 to i32
  %10 = getelementptr inbounds nuw %class.random_gen, ptr %3, i32 0, i32 0
  store i32 %9, ptr %10, align 4, !tbaa !95
  %11 = lshr i32 %9, 16
  %12 = and i32 %11, 32767
  ret i32 %12
}

; Function Attrs: mustprogress uwtable
define linkonce_odr hidden noundef zeroext i1 @_ZNK3sls5bvect3getEj(ptr noundef nonnull align 8 dereferenceable(20) %0, i32 noundef %1) #4 comdat align 2 {
  %3 = alloca ptr, align 8
  %4 = alloca i32, align 4
  store ptr %0, ptr %3, align 8, !tbaa !3
  store i32 %1, ptr %4, align 4, !tbaa !8
  %5 = load ptr, ptr %3, align 8
  %6 = load i32, ptr %4, align 4, !tbaa !8
  %7 = call noundef i32 @_ZNK3sls5bvect12get_bit_wordEj(ptr noundef nonnull align 8 dereferenceable(20) %5, i32 noundef %6)
  %8 = load i32, ptr %4, align 4, !tbaa !8
  %9 = call noundef i32 @_ZN3sls5bvect12get_pos_maskEj(i32 noundef %8)
  %10 = and i32 %7, %9
  %11 = icmp ne i32 %10, 0
  ret i1 %11
}

; Function Attrs: mustprogress uwtable
define linkonce_odr hidden noundef zeroext i1 @_ZNK3sls12bv_valuation7is_zeroERKNS_5bvectE(ptr noundef nonnull align 8 dereferenceable(184) %0, ptr noundef nonnull align 8 dereferenceable(20) %1) #4 comdat align 2 {
  %3 = alloca i1, align 1
  %4 = alloca ptr, align 8
  %5 = alloca ptr, align 8
  %6 = alloca i32, align 4
  %7 = alloca i32, align 4
  store ptr %0, ptr %4, align 8, !tbaa !53
  store ptr %1, ptr %5, align 8, !tbaa !3
  %8 = load ptr, ptr %4, align 8
  call void @llvm.lifetime.start.p0(i64 4, ptr %6) #3
  store i32 0, ptr %6, align 4, !tbaa !8
  br label %9

9:                                                ; preds = %24, %2
  %10 = load i32, ptr %6, align 4, !tbaa !8
  %11 = getelementptr inbounds nuw %"class.sls::bv_valuation", ptr %8, i32 0, i32 9
  %12 = load i32, ptr %11, align 4, !tbaa !57
  %13 = sub i32 %12, 1
  %14 = icmp ult i32 %10, %13
  br i1 %14, label %16, label %15

15:                                               ; preds = %9
  store i32 2, ptr %7, align 4
  br label %27

16:                                               ; preds = %9
  %17 = load ptr, ptr %5, align 8, !tbaa !3
  %18 = load i32, ptr %6, align 4, !tbaa !8
  %19 = call noundef nonnull align 4 dereferenceable(4) ptr @_ZNK6vectorIjLb0EjEixEj(ptr noundef nonnull align 8 dereferenceable(8) %17, i32 noundef %18)
  %20 = load i32, ptr %19, align 4, !tbaa !8
  %21 = icmp ne i32 %20, 0
  br i1 %21, label %22, label %23

22:                                               ; preds = %16
  store i1 false, ptr %3, align 1
  store i32 1, ptr %7, align 4
  br label %27

23:                                               ; preds = %16
  br label %24

24:                                               ; preds = %23
  %25 = load i32, ptr %6, align 4, !tbaa !8
  %26 = add i32 %25, 1
  store i32 %26, ptr %6, align 4, !tbaa !8
  br label %9, !llvm.loop !67

27:                                               ; preds = %22, %15
  call void @llvm.lifetime.end.p0(i64 4, ptr %6) #3
  %28 = load i32, ptr %7, align 4
  switch i32 %28, label %42 [
    i32 2, label %29
    i32 1, label %40
  ]

29:                                               ; preds = %27
  %30 = load ptr, ptr %5, align 8, !tbaa !3
  %31 = getelementptr inbounds nuw %"class.sls::bv_valuation", ptr %8, i32 0, i32 9
  %32 = load i32, ptr %31, align 4, !tbaa !57
  %33 = sub i32 %32, 1
  %34 = call noundef nonnull align 4 dereferenceable(4) ptr @_ZNK6vectorIjLb0EjEixEj(ptr noundef nonnull align 8 dereferenceable(8) %30, i32 noundef %33)
  %35 = load i32, ptr %34, align 4, !tbaa !8
  %36 = getelementptr inbounds nuw %"class.sls::bv_valuation", ptr %8, i32 0, i32 7
  %37 = load i32, ptr %36, align 4, !tbaa !59
  %38 = and i32 %35, %37
  %39 = icmp eq i32 %38, 0
  store i1 %39, ptr %3, align 1
  br label %40

40:                                               ; preds = %29, %27
  %41 = load i1, ptr %3, align 1
  ret i1 %41

42:                                               ; preds = %27
  unreachable
}

; Function Attrs: mustprogress uwtable
define hidden void @_ZN3sls12bv_valuation16set_random_belowERNS_5bvectER10random_gen(ptr noundef nonnull align 8 dereferenceable(184) %0, ptr noundef nonnull align 8 dereferenceable(20) %1, ptr noundef nonnull align 4 dereferenceable(4) %2) #4 align 2 {
  %4 = alloca ptr, align 8
  %5 = alloca ptr, align 8
  %6 = alloca ptr, align 8
  %7 = alloca i32, align 4
  %8 = alloca i32, align 4
  %9 = alloca i32, align 4
  %10 = alloca i32, align 4
  %11 = alloca i32, align 4
  store ptr %0, ptr %4, align 8, !tbaa !53
  store ptr %1, ptr %5, align 8, !tbaa !3
  store ptr %2, ptr %6, align 8, !tbaa !72
  %12 = load ptr, ptr %4, align 8
  %13 = load ptr, ptr %5, align 8, !tbaa !3
  %14 = call noundef zeroext i1 @_ZNK3sls12bv_valuation7is_zeroERKNS_5bvectE(ptr noundef nonnull align 8 dereferenceable(184) %12, ptr noundef nonnull align 8 dereferenceable(20) %13)
  br i1 %14, label %15, label %16

15:                                               ; preds = %3
  br label %75

16:                                               ; preds = %3
  call void @llvm.lifetime.start.p0(i64 4, ptr %7) #3
  store i32 0, ptr %7, align 4, !tbaa !8
  call void @llvm.lifetime.start.p0(i64 4, ptr %8) #3
  store i32 -1, ptr %8, align 4, !tbaa !8
  call void @llvm.lifetime.start.p0(i64 4, ptr %9) #3
  store i32 0, ptr %9, align 4, !tbaa !8
  br label %17

17:                                               ; preds = %41, %16
  %18 = load i32, ptr %9, align 4, !tbaa !8
  %19 = getelementptr inbounds nuw %"class.sls::bv_valuation", ptr %12, i32 0, i32 8
  %20 = load i32, ptr %19, align 8, !tbaa !60
  %21 = icmp ult i32 %18, %20
  br i1 %21, label %23, label %22

22:                                               ; preds = %17
  call void @llvm.lifetime.end.p0(i64 4, ptr %9) #3
  br label %44

23:                                               ; preds = %17
  %24 = load ptr, ptr %5, align 8, !tbaa !3
  %25 = load i32, ptr %9, align 4, !tbaa !8
  %26 = call noundef zeroext i1 @_ZNK3sls5bvect3getEj(ptr noundef nonnull align 8 dereferenceable(20) %24, i32 noundef %25)
  br i1 %26, label %27, label %40

27:                                               ; preds = %23
  %28 = getelementptr inbounds nuw %"class.sls::bv_valuation", ptr %12, i32 0, i32 3
  %29 = load i32, ptr %9, align 4, !tbaa !8
  %30 = call noundef zeroext i1 @_ZNK3sls5bvect3getEj(ptr noundef nonnull align 8 dereferenceable(20) %28, i32 noundef %29)
  br i1 %30, label %40, label %31

31:                                               ; preds = %27
  %32 = load ptr, ptr %6, align 8, !tbaa !72
  %33 = call noundef i32 @_ZN10random_genclEv(ptr noundef nonnull align 4 dereferenceable(4) %32)
  %34 = load i32, ptr %7, align 4, !tbaa !8
  %35 = add i32 %34, 1
  store i32 %35, ptr %7, align 4, !tbaa !8
  %36 = urem i32 %33, %35
  %37 = icmp eq i32 %36, 0
  br i1 %37, label %38, label %40

38:                                               ; preds = %31
  %39 = load i32, ptr %9, align 4, !tbaa !8
  store i32 %39, ptr %8, align 4, !tbaa !8
  br label %40

40:                                               ; preds = %38, %31, %27, %23
  br label %41

41:                                               ; preds = %40
  %42 = load i32, ptr %9, align 4, !tbaa !8
  %43 = add i32 %42, 1
  store i32 %43, ptr %9, align 4, !tbaa !8
  br label %17, !llvm.loop !74

44:                                               ; preds = %22
  %45 = load i32, ptr %8, align 4, !tbaa !8
  %46 = icmp eq i32 %45, -1
  br i1 %46, label %47, label %48

47:                                               ; preds = %44
  store i32 1, ptr %10, align 4
  br label %73

48:                                               ; preds = %44
  %49 = load ptr, ptr %5, align 8, !tbaa !3
  %50 = load i32, ptr %8, align 4, !tbaa !8
  call void @_ZN3sls5bvect3setEjb(ptr noundef nonnull align 8 dereferenceable(20) %49, i32 noundef %50, i1 noundef zeroext false)
  call void @llvm.lifetime.start.p0(i64 4, ptr %11) #3
  store i32 0, ptr %11, align 4, !tbaa !8
  br label %51

51:                                               ; preds = %68, %48
  %52 = load i32, ptr %11, align 4, !tbaa !8
  %53 = load i32, ptr %8, align 4, !tbaa !8
  %54 = icmp ult i32 %52, %53
  br i1 %54, label %56, label %55

55:                                               ; preds = %51
  store i32 5, ptr %10, align 4
  call void @llvm.lifetime.end.p0(i64 4, ptr %11) #3
  br label %71

56:                                               ; preds = %51
  %57 = getelementptr inbounds nuw %"class.sls::bv_valuation", ptr %12, i32 0, i32 3
  %58 = load i32, ptr %11, align 4, !tbaa !8
  %59 = call noundef zeroext i1 @_ZNK3sls5bvect3getEj(ptr noundef nonnull align 8 dereferenceable(20) %57, i32 noundef %58)
  br i1 %59, label %67, label %60

60:                                               ; preds = %56
  %61 = load ptr, ptr %5, align 8, !tbaa !3
  %62 = load i32, ptr %11, align 4, !tbaa !8
  %63 = load ptr, ptr %6, align 8, !tbaa !72
  %64 = call noundef i32 @_ZN10random_genclEv(ptr noundef nonnull align 4 dereferenceable(4) %63)
  %65 = srem i32 %64, 2
  %66 = icmp eq i32 %65, 0
  call void @_ZN3sls5bvect3setEjb(ptr noundef nonnull align 8 dereferenceable(20) %61, i32 noundef %62, i1 noundef zeroext %66)
  br label %67

67:                                               ; preds = %60, %56
  br label %68

68:                                               ; preds = %67
  %69 = load i32, ptr %11, align 4, !tbaa !8
  %70 = add i32 %69, 1
  store i32 %70, ptr %11, align 4, !tbaa !8
  br label %51, !llvm.loop !75

71:                                               ; preds = %55
  %72 = load ptr, ptr %5, align 8, !tbaa !3
  call void @_ZNK3sls12bv_valuation16repair_sign_bitsERNS_5bvectE(ptr noundef nonnull align 8 dereferenceable(184) %12, ptr noundef nonnull align 8 dereferenceable(20) %72)
  store i32 0, ptr %10, align 4
  br label %73

73:                                               ; preds = %71, %47
  call void @llvm.lifetime.end.p0(i64 4, ptr %8) #3
  call void @llvm.lifetime.end.p0(i64 4, ptr %7) #3
  %74 = load i32, ptr %10, align 4
  switch i32 %74, label %76 [
    i32 0, label %75
    i32 1, label %75
  ]

75:                                               ; preds = %15, %73, %73
  ret void

76:                                               ; preds = %73
  unreachable
}