; Function Attrs: mustprogress nofree norecurse nosync nounwind memory(readwrite, inaccessiblemem: none) uwtable
define hidden void @_ZN3sls12bv_valuation16set_random_belowERNS_5bvectER10random_gen(ptr noundef nonnull readonly align 8 captures(none) dereferenceable(184) %0, ptr noundef nonnull readonly align 8 captures(none) dereferenceable(20) %1, ptr noundef nonnull align 4 captures(none) dereferenceable(4) %2) local_unnamed_addr #10 align 2 {
  %4 = getelementptr inbounds nuw i8, ptr %0, i64 156
  %5 = load i32, ptr %4, align 4, !tbaa !68
  %6 = add i32 %5, -1
  %.not14.i = icmp eq i32 %6, 0
  %.pre.i = load ptr, ptr %1, align 8, !tbaa !14
  br i1 %.not14.i, label %._crit_edge.i, label %.lr.ph.i

.lr.ph.i:                                         ; preds = %3
  %wide.trip.count.i = zext i32 %6 to i64
  br label %8

7:                                                ; preds = %8
  %indvars.iv.next.i = add nuw nsw i64 %indvars.iv.i, 1
  %exitcond.not.i = icmp eq i64 %indvars.iv.next.i, %wide.trip.count.i
  br i1 %exitcond.not.i, label %._crit_edge.i, label %8, !llvm.loop !73

8:                                                ; preds = %7, %.lr.ph.i
  %indvars.iv.i = phi i64 [ 0, %.lr.ph.i ], [ %indvars.iv.next.i, %7 ]
  %9 = getelementptr inbounds nuw i32, ptr %.pre.i, i64 %indvars.iv.i
  %10 = load i32, ptr %9, align 4, !tbaa !15
  %.not.i = icmp eq i32 %10, 0
  br i1 %.not.i, label %7, label %_ZNK3sls12bv_valuation7is_zeroERKNS_5bvectE.exit.preheader

._crit_edge.i:                                    ; preds = %7, %3
  %.pre-phi.i = phi i64 [ 0, %3 ], [ %wide.trip.count.i, %7 ]
  %11 = getelementptr inbounds nuw i32, ptr %.pre.i, i64 %.pre-phi.i
  %12 = load i32, ptr %11, align 4, !tbaa !15
  %13 = getelementptr inbounds nuw i8, ptr %0, i64 148
  %14 = load i32, ptr %13, align 4, !tbaa !69
  %15 = and i32 %14, %12
  %16 = icmp eq i32 %15, 0
  br i1 %16, label %_ZNK3sls12bv_valuation7is_zeroERKNS_5bvectE.exit._crit_edge.thread, label %_ZNK3sls12bv_valuation7is_zeroERKNS_5bvectE.exit.preheader

_ZNK3sls12bv_valuation7is_zeroERKNS_5bvectE.exit.preheader: ; preds = %8, %._crit_edge.i
  %17 = getelementptr inbounds nuw i8, ptr %0, i64 152
  %18 = load i32, ptr %17, align 8, !tbaa !67
  %.not31 = icmp eq i32 %18, 0
  br i1 %.not31, label %_ZNK3sls12bv_valuation7is_zeroERKNS_5bvectE.exit._crit_edge.thread, label %.lr.ph

.lr.ph:                                           ; preds = %_ZNK3sls12bv_valuation7is_zeroERKNS_5bvectE.exit.preheader
  %.promoted = load i32, ptr %2, align 4
  %19 = getelementptr inbounds nuw i8, ptr %0, i64 72
  %20 = load ptr, ptr %19, align 8
  br label %22

_ZNK3sls12bv_valuation7is_zeroERKNS_5bvectE.exit._crit_edge: ; preds = %_ZNK3sls12bv_valuation7is_zeroERKNS_5bvectE.exit
  %21 = icmp eq i32 %.1, -1
  br i1 %21, label %_ZNK3sls12bv_valuation7is_zeroERKNS_5bvectE.exit._crit_edge.thread, label %45

22:                                               ; preds = %.lr.ph, %_ZNK3sls12bv_valuation7is_zeroERKNS_5bvectE.exit
  %.02028 = phi i32 [ 0, %.lr.ph ], [ %44, %_ZNK3sls12bv_valuation7is_zeroERKNS_5bvectE.exit ]
  %.02127 = phi i32 [ -1, %.lr.ph ], [ %.1, %_ZNK3sls12bv_valuation7is_zeroERKNS_5bvectE.exit ]
  %.02226 = phi i32 [ 0, %.lr.ph ], [ %.123, %_ZNK3sls12bv_valuation7is_zeroERKNS_5bvectE.exit ]
  %23 = phi i32 [ %.promoted, %.lr.ph ], [ %43, %_ZNK3sls12bv_valuation7is_zeroERKNS_5bvectE.exit ]
  %24 = lshr i32 %.02028, 5
  %25 = zext nneg i32 %24 to i64
  %26 = getelementptr inbounds nuw i32, ptr %.pre.i, i64 %25
  %27 = load i32, ptr %26, align 4, !tbaa !15
  %28 = and i32 %.02028, 31
  %29 = shl nuw i32 1, %28
  %30 = and i32 %27, %29
  %.not24 = icmp eq i32 %30, 0
  br i1 %.not24, label %_ZNK3sls12bv_valuation7is_zeroERKNS_5bvectE.exit, label %31

31:                                               ; preds = %22
  %32 = getelementptr inbounds nuw i32, ptr %20, i64 %25
  %33 = load i32, ptr %32, align 4, !tbaa !15
  %34 = and i32 %33, %29
  %.not25 = icmp eq i32 %34, 0
  br i1 %.not25, label %35, label %_ZNK3sls12bv_valuation7is_zeroERKNS_5bvectE.exit

35:                                               ; preds = %31
  %36 = mul i32 %23, 214013
  %37 = add i32 %36, 2531011
  store i32 %37, ptr %2, align 4, !tbaa !83
  %38 = lshr i32 %37, 16
  %39 = and i32 %38, 32767
  %40 = add i32 %.02226, 1
  %41 = urem i32 %39, %40
  %42 = icmp eq i32 %41, 0
  %spec.select = select i1 %42, i32 %.02028, i32 %.02127
  br label %_ZNK3sls12bv_valuation7is_zeroERKNS_5bvectE.exit

_ZNK3sls12bv_valuation7is_zeroERKNS_5bvectE.exit: ; preds = %35, %22, %31
  %43 = phi i32 [ %23, %31 ], [ %23, %22 ], [ %37, %35 ]
  %.123 = phi i32 [ %.02226, %31 ], [ %.02226, %22 ], [ %40, %35 ]
  %.1 = phi i32 [ %.02127, %31 ], [ %.02127, %22 ], [ %spec.select, %35 ]
  %44 = add nuw i32 %.02028, 1
  %exitcond.not = icmp eq i32 %44, %18
  br i1 %exitcond.not, label %_ZNK3sls12bv_valuation7is_zeroERKNS_5bvectE.exit._crit_edge, label %22, !llvm.loop !86

45:                                               ; preds = %_ZNK3sls12bv_valuation7is_zeroERKNS_5bvectE.exit._crit_edge
  %46 = lshr i32 %.1, 5
  %47 = zext nneg i32 %46 to i64
  %48 = getelementptr inbounds nuw i32, ptr %.pre.i, i64 %47
  %49 = load i32, ptr %48, align 4, !tbaa !15
  %50 = and i32 %.1, 31
  %51 = shl nuw i32 1, %50
  %52 = xor i32 %51, -1
  %53 = and i32 %49, %52
  store i32 %53, ptr %48, align 4, !tbaa !15
  %.not32 = icmp eq i32 %.1, 0
  br i1 %.not32, label %._crit_edge, label %.lr.ph30

.lr.ph30:                                         ; preds = %45
  %54 = getelementptr inbounds nuw i8, ptr %0, i64 72
  %55 = load ptr, ptr %54, align 8, !tbaa !14
  br label %56

._crit_edge:                                      ; preds = %75, %45
  tail call void @_ZNK3sls12bv_valuation16repair_sign_bitsERNS_5bvectE(ptr noundef nonnull align 8 dereferenceable(184) %0, ptr noundef nonnull align 8 dereferenceable(20) %1)
  br label %_ZNK3sls12bv_valuation7is_zeroERKNS_5bvectE.exit._crit_edge.thread

56:                                               ; preds = %.lr.ph30, %75
  %.029 = phi i32 [ 0, %.lr.ph30 ], [ %76, %75 ]
  %57 = lshr i32 %.029, 5
  %58 = zext nneg i32 %57 to i64
  %59 = getelementptr inbounds nuw i32, ptr %55, i64 %58
  %60 = load i32, ptr %59, align 4, !tbaa !15
  %61 = and i32 %.029, 31
  %62 = shl nuw i32 1, %61
  %63 = and i32 %60, %62
  %.not = icmp eq i32 %63, 0
  br i1 %.not, label %64, label %75

64:                                               ; preds = %56
  %65 = load i32, ptr %2, align 4, !tbaa !83
  %66 = mul i32 %65, 214013
  %67 = add i32 %66, 2531011
  store i32 %67, ptr %2, align 4, !tbaa !83
  %68 = lshr i32 %67, 16
  %69 = and i32 %68, 1
  %sext = add nsw i32 %69, -1
  %70 = getelementptr inbounds nuw i32, ptr %.pre.i, i64 %58
  %71 = load i32, ptr %70, align 4, !tbaa !15
  %72 = xor i32 %sext, %71
  %73 = and i32 %72, %62
  %74 = xor i32 %73, %71
  store i32 %74, ptr %70, align 4, !tbaa !15
  br label %75

75:                                               ; preds = %56, %64
  %76 = add nuw i32 %.029, 1
  %exitcond33.not = icmp eq i32 %76, %.1
  br i1 %exitcond33.not, label %._crit_edge, label %56, !llvm.loop !87

_ZNK3sls12bv_valuation7is_zeroERKNS_5bvectE.exit._crit_edge.thread: ; preds = %_ZNK3sls12bv_valuation7is_zeroERKNS_5bvectE.exit.preheader, %._crit_edge.i, %._crit_edge, %_ZNK3sls12bv_valuation7is_zeroERKNS_5bvectE.exit._crit_edge
  ret void
}